target datalayout = "e-m:e-p270:32:32-p271:32:32-p272:64:64-i64:64-i128:128-f80:128-n8:16:32:64-S128"
target triple = "x86_64-pc-linux-gnu"

%struct.wolfSSL_RefWithMutex = type { %union.pthread_mutex_t, i32 }
%union.pthread_mutex_t = type { %struct.__pthread_mutex_s }
%struct.__pthread_mutex_s = type { i32, i32, i32, i32, i32, i16, i16, %struct.__pthread_internal_list }
%struct.__pthread_internal_list = type { ptr, ptr }

; Function Attrs: nounwind uwtable
define i32 @wc_UnLockMutex(ptr noundef %0) #0 {
  %2 = alloca i32, align 4
  %3 = alloca ptr, align 8
  store ptr %0, ptr %3, align 8, !tbaa !14
  %4 = load ptr, ptr %3, align 8, !tbaa !14
  %5 = call i32 @pthread_mutex_unlock(ptr noundef %4) #7
  %6 = icmp eq i32 %5, 0
  br i1 %6, label %7, label %8

7:                                                ; preds = %1
  store i32 0, ptr %2, align 4
  br label %9

8:                                                ; preds = %1
  store i32 -106, ptr %2, align 4
  br label %9

9:                                                ; preds = %8, %7
  %10 = load i32, ptr %2, align 4
  ret i32 %10
}

; Function Attrs: nounwind uwtable
define i32 @wc_LockMutex(ptr noundef %0) #0 {
  %2 = alloca i32, align 4
  %3 = alloca ptr, align 8
  store ptr %0, ptr %3, align 8, !tbaa !14
  %4 = load ptr, ptr %3, align 8, !tbaa !14
  %5 = call i32 @pthread_mutex_lock(ptr noundef %4) #7
  %6 = icmp eq i32 %5, 0
  br i1 %6, label %7, label %8

7:                                                ; preds = %1
  store i32 0, ptr %2, align 4
  br label %9

8:                                                ; preds = %1
  store i32 -106, ptr %2, align 4
  br label %9

9:                                                ; preds = %8, %7
  %10 = load i32, ptr %2, align 4
  ret i32 %10
}

; Function Attrs: nounwind uwtable
define void @wolfSSL_RefWithMutexDec(ptr noundef %0, ptr noundef %1, ptr noundef %2) #0 {
  %4 = alloca ptr, align 8
  %5 = alloca ptr, align 8
  %6 = alloca ptr, align 8
  %7 = alloca i32, align 4
  store ptr %0, ptr %4, align 8, !tbaa !40
  store ptr %1, ptr %5, align 8, !tbaa !42
  store ptr %2, ptr %6, align 8, !tbaa !42
  call void @llvm.lifetime.start.p0(i64 4, ptr %7) #7
  %8 = load ptr, ptr %4, align 8, !tbaa !40
  %9 = getelementptr inbounds nuw %struct.wolfSSL_RefWithMutex, ptr %8, i32 0, i32 0
  %10 = call i32 @wc_LockMutex(ptr noundef %9)
  store i32 %10, ptr %7, align 4, !tbaa !3
  %11 = load i32, ptr %7, align 4, !tbaa !3
  %12 = icmp ne i32 %11, 0
  br i1 %12, label %13, label %18

13:                                               ; preds = %3
  br label %14

14:                                               ; preds = %13
  br label %15

15:                                               ; preds = %14
  br label %16

16:                                               ; preds = %15
  %17 = load ptr, ptr %5, align 8, !tbaa !42
  store i32 0, ptr %17, align 4, !tbaa !3
  br label %38

18:                                               ; preds = %3
  %19 = load ptr, ptr %4, align 8, !tbaa !40
  %20 = getelementptr inbounds nuw %struct.wolfSSL_RefWithMutex, ptr %19, i32 0, i32 1
  %21 = load i32, ptr %20, align 8, !tbaa !44
  %22 = icmp sgt i32 %21, 0
  br i1 %22, label %23, label %28

23:                                               ; preds = %18
  %24 = load ptr, ptr %4, align 8, !tbaa !40
  %25 = getelementptr inbounds nuw %struct.wolfSSL_RefWithMutex, ptr %24, i32 0, i32 1
  %26 = load i32, ptr %25, align 8, !tbaa !44
  %27 = add nsw i32 %26, -1
  store i32 %27, ptr %25, align 8, !tbaa !44
  br label %28

28:                                               ; preds = %23, %18
  %29 = load ptr, ptr %4, align 8, !tbaa !40
  %30 = getelementptr inbounds nuw %struct.wolfSSL_RefWithMutex, ptr %29, i32 0, i32 1
  %31 = load i32, ptr %30, align 8, !tbaa !44
  %32 = icmp eq i32 %31, 0
  %33 = zext i1 %32 to i32
  %34 = load ptr, ptr %5, align 8, !tbaa !42
  store i32 %33, ptr %34, align 4, !tbaa !3
  %35 = load ptr, ptr %4, align 8, !tbaa !40
  %36 = getelementptr inbounds nuw %struct.wolfSSL_RefWithMutex, ptr %35, i32 0, i32 0
  %37 = call i32 @wc_UnLockMutex(ptr noundef %36)
  br label %38

38:                                               ; preds = %28, %16
  %39 = load i32, ptr %7, align 4, !tbaa !3
  %40 = load ptr, ptr %6, align 8, !tbaa !42
  store i32 %39, ptr %40, align 4, !tbaa !3
  call void @llvm.lifetime.end.p0(i64 4, ptr %7) #7
  ret void
}