; Function Attrs: nounwind uwtable
define void @wolfSSL_RefWithMutexDec(ptr noundef %0, ptr noundef writeonly captures(none) initializes((0, 4)) %1, ptr noundef writeonly captures(none) initializes((0, 4)) %2) local_unnamed_addr #2 {
  %4 = tail call i32 @pthread_mutex_lock(ptr noundef %0) #16
  %5 = icmp eq i32 %4, 0
  br i1 %5, label %7, label %6

6:                                                ; preds = %3
  store i32 0, ptr %1, align 4, !tbaa !3
  br label %18

7:                                                ; preds = %3
  %8 = getelementptr inbounds nuw i8, ptr %0, i64 40
  %9 = load i32, ptr %8, align 8, !tbaa !29
  %10 = icmp sgt i32 %9, 0
  br i1 %10, label %11, label %13

11:                                               ; preds = %7
  %12 = add nsw i32 %9, -1
  store i32 %12, ptr %8, align 8, !tbaa !29
  br label %13

13:                                               ; preds = %11, %7
  %14 = phi i32 [ %12, %11 ], [ %9, %7 ]
  %15 = icmp eq i32 %14, 0
  %16 = zext i1 %15 to i32
  store i32 %16, ptr %1, align 4, !tbaa !3
  %17 = tail call i32 @pthread_mutex_unlock(ptr noundef nonnull %0) #16
  br label %18

18:                                               ; preds = %13, %6
  %..i = phi i32 [ 0, %13 ], [ -106, %6 ]
  store i32 %..i, ptr %2, align 4, !tbaa !3
  ret void
}